; Function Attrs: mustprogress uwtable
define noundef nonnull ptr @_ZN32pxrInternal_v0_24__pxrReserved__17Sdf_FileIOUtility9StringifyENS_13SdfPermissionE(i32 noundef %0) local_unnamed_addr #0 align 2 {
  %2 = alloca %"class.pxrInternal_v0_24__pxrReserved__::TfCallContext", align 8
  switch i32 %0, label %4 [
    i32 0, label %9
    i32 1, label %3
  ]

3:                                                ; preds = %1
  br label %9

4:                                                ; preds = %1
  store ptr @.str.4, ptr %2, align 8
  %5 = getelementptr inbounds nuw i8, ptr %2, i64 8
  store ptr @__func__._ZN32pxrInternal_v0_24__pxrReserved__17Sdf_FileIOUtility9StringifyENS_13SdfPermissionE, ptr %5, align 8
  %6 = getelementptr inbounds nuw i8, ptr %2, i64 16
  store i64 882, ptr %6, align 8
  %7 = getelementptr inbounds nuw i8, ptr %2, i64 24
  store ptr @__PRETTY_FUNCTION__._ZN32pxrInternal_v0_24__pxrReserved__17Sdf_FileIOUtility9StringifyENS_13SdfPermissionE, ptr %7, align 8
  %8 = getelementptr inbounds nuw i8, ptr %2, i64 32
  store i8 0, ptr %8, align 8
  call void (ptr, i32, ptr, ...) @_ZN32pxrInternal_v0_24__pxrReserved__18Tf_PostErrorHelperERKNS_13TfCallContextENS_16TfDiagnosticTypeEPKcz(ptr noundef nonnull align 8 dereferenceable(33) %2, i32 noundef 1, ptr noundef nonnull @.str.27)
  br label %9

9:                                                ; preds = %1, %4, %3
  %.0 = phi ptr [ @.str.23, %4 ], [ @.str.26, %3 ], [ @.str.25, %1 ]
  ret ptr %.0
}